target datalayout = "e-m:e-p270:32:32-p271:32:32-p272:64:64-i64:64-i128:128-f80:128-n8:16:32:64-S128"
target triple = "x86_64-pc-linux-gnu"

%"class.cv::Point3_" = type { float, float, float }

; Function Attrs: inlinehint mustprogress nounwind uwtable
define internal void @_ZN2cv4rgbdL33calcRgbdEquationCoeffsTranslationEPdddRKNS_7Point3_IfEEdd(ptr noundef %0, double noundef %1, double noundef %2, ptr noundef nonnull align 4 dereferenceable(12) %3, double noundef %4, double noundef %5) #11 {
  %7 = alloca ptr, align 8
  %8 = alloca double, align 8
  %9 = alloca double, align 8
  %10 = alloca ptr, align 8
  %11 = alloca double, align 8
  %12 = alloca double, align 8
  %13 = alloca double, align 8
  %14 = alloca double, align 8
  %15 = alloca double, align 8
  %16 = alloca double, align 8
  store ptr %0, ptr %7, align 8, !tbaa !289
  store double %1, ptr %8, align 8, !tbaa !117
  store double %2, ptr %9, align 8, !tbaa !117
  store ptr %3, ptr %10, align 8, !tbaa !161
  store double %4, ptr %11, align 8, !tbaa !117
  store double %5, ptr %12, align 8, !tbaa !117
  call void @llvm.lifetime.start.p0(i64 8, ptr %13) #3
  %17 = load ptr, ptr %10, align 8, !tbaa !161
  %18 = getelementptr inbounds nuw %"class.cv::Point3_", ptr %17, i32 0, i32 2
  %19 = load float, ptr %18, align 4, !tbaa !211
  %20 = fpext float %19 to double
  %21 = fdiv double 1.000000e+00, %20
  store double %21, ptr %13, align 8, !tbaa !117
  call void @llvm.lifetime.start.p0(i64 8, ptr %14) #3
  %22 = load double, ptr %8, align 8, !tbaa !117
  %23 = load double, ptr %11, align 8, !tbaa !117
  %24 = fmul double %22, %23
  %25 = load double, ptr %13, align 8, !tbaa !117
  %26 = fmul double %24, %25
  store double %26, ptr %14, align 8, !tbaa !117
  call void @llvm.lifetime.start.p0(i64 8, ptr %15) #3
  %27 = load double, ptr %9, align 8, !tbaa !117
  %28 = load double, ptr %12, align 8, !tbaa !117
  %29 = fmul double %27, %28
  %30 = load double, ptr %13, align 8, !tbaa !117
  %31 = fmul double %29, %30
  store double %31, ptr %15, align 8, !tbaa !117
  call void @llvm.lifetime.start.p0(i64 8, ptr %16) #3
  %32 = load double, ptr %14, align 8, !tbaa !117
  %33 = load ptr, ptr %10, align 8, !tbaa !161
  %34 = getelementptr inbounds nuw %"class.cv::Point3_", ptr %33, i32 0, i32 0
  %35 = load float, ptr %34, align 4, !tbaa !291
  %36 = fpext float %35 to double
  %37 = load double, ptr %15, align 8, !tbaa !117
  %38 = load ptr, ptr %10, align 8, !tbaa !161
  %39 = getelementptr inbounds nuw %"class.cv::Point3_", ptr %38, i32 0, i32 1
  %40 = load float, ptr %39, align 4, !tbaa !292
  %41 = fpext float %40 to double
  %42 = fmul double %37, %41
  %43 = call double @llvm.fmuladd.f64(double %32, double %36, double %42)
  %44 = fneg double %43
  %45 = load double, ptr %13, align 8, !tbaa !117
  %46 = fmul double %44, %45
  store double %46, ptr %16, align 8, !tbaa !117
  %47 = load double, ptr %14, align 8, !tbaa !117
  %48 = load ptr, ptr %7, align 8, !tbaa !289
  %49 = getelementptr inbounds double, ptr %48, i64 0
  store double %47, ptr %49, align 8, !tbaa !117
  %50 = load double, ptr %15, align 8, !tbaa !117
  %51 = load ptr, ptr %7, align 8, !tbaa !289
  %52 = getelementptr inbounds double, ptr %51, i64 1
  store double %50, ptr %52, align 8, !tbaa !117
  %53 = load double, ptr %16, align 8, !tbaa !117
  %54 = load ptr, ptr %7, align 8, !tbaa !289
  %55 = getelementptr inbounds double, ptr %54, i64 2
  store double %53, ptr %55, align 8, !tbaa !117
  call void @llvm.lifetime.end.p0(i64 8, ptr %16) #3
  call void @llvm.lifetime.end.p0(i64 8, ptr %15) #3
  call void @llvm.lifetime.end.p0(i64 8, ptr %14) #3
  call void @llvm.lifetime.end.p0(i64 8, ptr %13) #3
  ret void
}