; Function Attrs: inlinehint mustprogress nofree norecurse nosync nounwind willreturn memory(argmem: readwrite) uwtable
define internal void @_ZN2cv4rgbdL33calcRgbdEquationCoeffsTranslationEPdddRKNS_7Point3_IfEEdd(ptr noundef writeonly captures(none) initializes((0, 24)) %0, double noundef %1, double noundef %2, ptr noundef nonnull readonly align 4 captures(none) dereferenceable(12) %3, double noundef %4, double noundef %5) unnamed_addr #17 {
  %7 = getelementptr inbounds nuw i8, ptr %3, i64 8
  %8 = load float, ptr %7, align 4, !tbaa !209
  %9 = fpext float %8 to double
  %10 = fdiv double 1.000000e+00, %9
  %11 = fmul double %1, %4
  %12 = fmul double %11, %10
  %13 = fmul double %2, %5
  %14 = fmul double %13, %10
  %15 = load float, ptr %3, align 4, !tbaa !206
  %16 = fpext float %15 to double
  %17 = getelementptr inbounds nuw i8, ptr %3, i64 4
  %18 = load float, ptr %17, align 4, !tbaa !208
  %19 = fpext float %18 to double
  %20 = fmul double %14, %19
  %21 = tail call double @llvm.fmuladd.f64(double %12, double %16, double %20)
  %22 = fneg double %21
  %23 = fmul double %10, %22
  store double %12, ptr %0, align 8, !tbaa !154
  %24 = getelementptr inbounds nuw i8, ptr %0, i64 8
  store double %14, ptr %24, align 8, !tbaa !154
  %25 = getelementptr inbounds nuw i8, ptr %0, i64 16
  store double %23, ptr %25, align 8, !tbaa !154
  ret void
}